target datalayout = "e-m:e-p270:32:32-p271:32:32-p272:64:64-i64:64-i128:128-f80:128-n8:16:32:64-S128"
target triple = "x86_64-pc-linux-gnu"

%struct.slurm_conf_t = type { i64, ptr, i16, ptr, ptr, ptr, ptr, ptr, i16, ptr, ptr, ptr, ptr, ptr, ptr, ptr, i16, ptr, ptr, ptr, ptr, i16, ptr, ptr, ptr, i64, ptr, ptr, ptr, ptr, i16, ptr, ptr, i16, i32, ptr, i32, ptr, i32, i32, ptr, ptr, i64, i64, ptr, i16, i16, ptr, i32, i32, ptr, i32, ptr, i32, i16, i16, i16, ptr, i16, i16, ptr, ptr, i32, i16, i16, ptr, i32, i16, ptr, ptr, ptr, ptr, i16, ptr, ptr, ptr, ptr, i32, ptr, ptr, ptr, ptr, i16, i16, ptr, i32, i32, i32, i16, i16, ptr, ptr, i16, ptr, ptr, i32, i32, i32, i32, i32, i64, i32, i32, i16, ptr, ptr, i32, ptr, ptr, ptr, i16, i32, ptr, ptr, i16, ptr, ptr, i32, i16, ptr, ptr, ptr, ptr, i32, i32, i16, i16, i32, ptr, i16, ptr, i32, i32, i32, i32, i32, i32, ptr, i16, ptr, ptr, i32, i16, ptr, i32, i16, i16, ptr, ptr, ptr, i16, ptr, ptr, ptr, ptr, i16, i16, ptr, i16, ptr, i16, ptr, i16, ptr, i16, ptr, ptr, ptr, ptr, i16, ptr, ptr, ptr, i32, ptr, i32, ptr, ptr, i16, ptr, ptr, i32, i16, ptr, ptr, i16, i16, ptr, i16, ptr, ptr, ptr, i32, ptr, i16, i16, ptr, ptr, ptr, ptr, ptr, ptr, ptr, ptr, i16, i32, i16, ptr, ptr, ptr, ptr, i32, ptr, ptr, ptr, i16, ptr, ptr, ptr, i16, ptr, i16, ptr, i16, i16, ptr }
%union.pthread_mutex_t = type { %struct.__pthread_mutex_s }
%struct.__pthread_mutex_s = type { i32, i32, i32, i32, i32, i16, i16, %struct.__pthread_internal_list }
%struct.__pthread_internal_list = type { ptr, ptr }
%union.pthread_cond_t = type { %struct.__pthread_cond_s }
%struct.__pthread_cond_s = type { %union.__atomic_wide_counter, %union.__atomic_wide_counter, [2 x i32], [2 x i32], i32, i32, [2 x i32] }
%union.__atomic_wide_counter = type { i64 }

@slurm_conf = external global %struct.slurm_conf_t, align 8
@timeslicer_thread_id = internal global i64 0, align 8
@preempt_job_list = internal global ptr null, align 8
@data_mutex = internal global %union.pthread_mutex_t zeroinitializer, align 8
@.str.1 = private unnamed_addr constant [29 x i8] c"%s: pthread_mutex_lock(): %m\00", align 1
@.str.2 = private unnamed_addr constant [31 x i8] c"%s: pthread_mutex_unlock(): %m\00", align 1
@.str.4 = private unnamed_addr constant [29 x i8] c"GANG: gang: entering gs_fini\00", align 1
@thread_flag_mutex = internal global %union.pthread_mutex_t zeroinitializer, align 8
@__func__.gs_fini = private unnamed_addr constant [8 x i8] c"gs_fini\00", align 1
@thread_running = internal global i8 0, align 1
@term_lock = internal global %union.pthread_mutex_t zeroinitializer, align 8
@thread_shutdown = internal global i8 0, align 1
@term_cond = internal global %union.pthread_cond_t zeroinitializer, align 8
@.str.5 = private unnamed_addr constant [36 x i8] c"%s:%d %s: pthread_cond_signal(): %m\00", align 1
@.str.6 = private unnamed_addr constant [7 x i8] c"gang.c\00", align 1
@.str.7 = private unnamed_addr constant [39 x i8] c"gang: timeslicer pthread still running\00", align 1
@gs_part_list = internal global ptr null, align 8
@.str.8 = private unnamed_addr constant [28 x i8] c"GANG: gang: leaving gs_fini\00", align 1

; Function Attrs: nounwind uwtable
define dso_local void @gs_fini() #0 {
  %1 = alloca i32, align 4
  %2 = alloca i32, align 4
  %3 = alloca i32, align 4
  %4 = alloca i32, align 4
  %5 = alloca i32, align 4
  %6 = alloca i32, align 4
  %7 = alloca i32, align 4
  %8 = alloca i32, align 4
  %9 = alloca i32, align 4
  %10 = alloca i32, align 4
  %11 = alloca i32, align 4
  %12 = alloca i32, align 4
  br label %13

13:                                               ; preds = %0
  %14 = load i64, ptr getelementptr inbounds nuw (%struct.slurm_conf_t, ptr @slurm_conf, i32 0, i32 42), align 8
  %15 = and i64 %14, 8192
  %16 = icmp ne i64 %15, 0
  br i1 %16, label %17, label %24

17:                                               ; preds = %13
  br label %18

18:                                               ; preds = %17
  %19 = call i32 @get_log_level()
  %20 = icmp sge i32 %19, 4
  br i1 %20, label %21, label %22

21:                                               ; preds = %18
  call void (i32, ptr, ...) @log_var(i32 noundef 4, ptr noundef @.str.4)
  br label %22

22:                                               ; preds = %21, %18
  br label %23

23:                                               ; preds = %22
  br label %24

24:                                               ; preds = %23, %13
  br label %25

25:                                               ; preds = %24
  br label %26

26:                                               ; preds = %25
  call void @llvm.lifetime.start.p0(i64 4, ptr %1) #8
  %27 = call i32 @pthread_mutex_lock(ptr noundef @thread_flag_mutex) #8
  store i32 %27, ptr %1, align 4
  %28 = load i32, ptr %1, align 4
  %29 = icmp ne i32 %28, 0
  br i1 %29, label %30, label %33

30:                                               ; preds = %26
  %31 = load i32, ptr %1, align 4
  %32 = call ptr @__errno_location() #9
  store i32 %31, ptr %32, align 4
  call void (ptr, ...) @fatal_abort(ptr noundef @.str.1, ptr noundef @__func__.gs_fini) #10
  unreachable

33:                                               ; preds = %26
  call void @llvm.lifetime.end.p0(i64 4, ptr %1) #8
  br label %34

34:                                               ; preds = %33
  %35 = load i8, ptr @thread_running, align 1, !range !12, !noundef !13
  %36 = trunc i8 %35 to i1
  br i1 %36, label %37, label %118

37:                                               ; preds = %34
  br label %38

38:                                               ; preds = %37
  call void @llvm.lifetime.start.p0(i64 4, ptr %2) #8
  %39 = call i32 @pthread_mutex_lock(ptr noundef @term_lock) #8
  store i32 %39, ptr %2, align 4
  %40 = load i32, ptr %2, align 4
  %41 = icmp ne i32 %40, 0
  br i1 %41, label %42, label %45

42:                                               ; preds = %38
  %43 = load i32, ptr %2, align 4
  %44 = call ptr @__errno_location() #9
  store i32 %43, ptr %44, align 4
  call void (ptr, ...) @fatal_abort(ptr noundef @.str.1, ptr noundef @__func__.gs_fini) #10
  unreachable

45:                                               ; preds = %38
  call void @llvm.lifetime.end.p0(i64 4, ptr %2) #8
  br label %46

46:                                               ; preds = %45
  store i8 1, ptr @thread_shutdown, align 1
  br label %47

47:                                               ; preds = %46
  call void @llvm.lifetime.start.p0(i64 4, ptr %3) #8
  %48 = call i32 @pthread_cond_signal(ptr noundef @term_cond) #8
  store i32 %48, ptr %3, align 4
  %49 = load i32, ptr %3, align 4
  %50 = icmp ne i32 %49, 0
  br i1 %50, label %51, label %55

51:                                               ; preds = %47
  %52 = load i32, ptr %3, align 4
  %53 = call ptr @__errno_location() #9
  store i32 %52, ptr %53, align 4
  %54 = call i32 (ptr, ...) @error(ptr noundef @.str.5, ptr noundef @.str.6, i32 noundef 1081, ptr noundef @__func__.gs_fini)
  br label %55

55:                                               ; preds = %51, %47
  call void @llvm.lifetime.end.p0(i64 4, ptr %3) #8
  br label %56

56:                                               ; preds = %55
  br label %57

57:                                               ; preds = %56
  call void @llvm.lifetime.start.p0(i64 4, ptr %4) #8
  %58 = call i32 @pthread_mutex_unlock(ptr noundef @term_lock) #8
  store i32 %58, ptr %4, align 4
  %59 = load i32, ptr %4, align 4
  %60 = icmp ne i32 %59, 0
  br i1 %60, label %61, label %64

61:                                               ; preds = %57
  %62 = load i32, ptr %4, align 4
  %63 = call ptr @__errno_location() #9
  store i32 %62, ptr %63, align 4
  call void (ptr, ...) @fatal_abort(ptr noundef @.str.2, ptr noundef @__func__.gs_fini) #10
  unreachable

64:                                               ; preds = %57
  call void @llvm.lifetime.end.p0(i64 4, ptr %4) #8
  br label %65

65:                                               ; preds = %64
  br label %66

66:                                               ; preds = %65
  call void @llvm.lifetime.start.p0(i64 4, ptr %5) #8
  %67 = call i32 @pthread_mutex_unlock(ptr noundef @thread_flag_mutex) #8
  store i32 %67, ptr %5, align 4
  %68 = load i32, ptr %5, align 4
  %69 = icmp ne i32 %68, 0
  br i1 %69, label %70, label %73

70:                                               ; preds = %66
  %71 = load i32, ptr %5, align 4
  %72 = call ptr @__errno_location() #9
  store i32 %71, ptr %72, align 4
  call void (ptr, ...) @fatal_abort(ptr noundef @.str.2, ptr noundef @__func__.gs_fini) #10
  unreachable

73:                                               ; preds = %66
  call void @llvm.lifetime.end.p0(i64 4, ptr %5) #8
  br label %74

74:                                               ; preds = %73
  %75 = call i32 @usleep(i32 noundef 120000)
  %76 = load i64, ptr @timeslicer_thread_id, align 8
  %77 = icmp ne i64 %76, 0
  br i1 %77, label %78, label %80

78:                                               ; preds = %74
  %79 = call i32 (ptr, ...) @error(ptr noundef @.str.7)
  br label %117

80:                                               ; preds = %74
  br label %81

81:                                               ; preds = %80
  call void @llvm.lifetime.start.p0(i64 4, ptr %6) #8
  %82 = call i32 @pthread_mutex_lock(ptr noundef @thread_flag_mutex) #8
  store i32 %82, ptr %6, align 4
  %83 = load i32, ptr %6, align 4
  %84 = icmp ne i32 %83, 0
  br i1 %84, label %85, label %88

85:                                               ; preds = %81
  %86 = load i32, ptr %6, align 4
  %87 = call ptr @__errno_location() #9
  store i32 %86, ptr %87, align 4
  call void (ptr, ...) @fatal_abort(ptr noundef @.str.1, ptr noundef @__func__.gs_fini) #10
  unreachable

88:                                               ; preds = %81
  call void @llvm.lifetime.end.p0(i64 4, ptr %6) #8
  br label %89

89:                                               ; preds = %88
  store i8 0, ptr @thread_running, align 1
  br label %90

90:                                               ; preds = %89
  call void @llvm.lifetime.start.p0(i64 4, ptr %7) #8
  %91 = call i32 @pthread_mutex_unlock(ptr noundef @thread_flag_mutex) #8
  store i32 %91, ptr %7, align 4
  %92 = load i32, ptr %7, align 4
  %93 = icmp ne i32 %92, 0
  br i1 %93, label %94, label %97

94:                                               ; preds = %90
  %95 = load i32, ptr %7, align 4
  %96 = call ptr @__errno_location() #9
  store i32 %95, ptr %96, align 4
  call void (ptr, ...) @fatal_abort(ptr noundef @.str.2, ptr noundef @__func__.gs_fini) #10
  unreachable

97:                                               ; preds = %90
  call void @llvm.lifetime.end.p0(i64 4, ptr %7) #8
  br label %98

98:                                               ; preds = %97
  br label %99

99:                                               ; preds = %98
  call void @llvm.lifetime.start.p0(i64 4, ptr %8) #8
  %100 = call i32 @pthread_mutex_lock(ptr noundef @term_lock) #8
  store i32 %100, ptr %8, align 4
  %101 = load i32, ptr %8, align 4
  %102 = icmp ne i32 %101, 0
  br i1 %102, label %103, label %106

103:                                              ; preds = %99
  %104 = load i32, ptr %8, align 4
  %105 = call ptr @__errno_location() #9
  store i32 %104, ptr %105, align 4
  call void (ptr, ...) @fatal_abort(ptr noundef @.str.1, ptr noundef @__func__.gs_fini) #10
  unreachable

106:                                              ; preds = %99
  call void @llvm.lifetime.end.p0(i64 4, ptr %8) #8
  br label %107

107:                                              ; preds = %106
  store i8 0, ptr @thread_shutdown, align 1
  br label %108

108:                                              ; preds = %107
  call void @llvm.lifetime.start.p0(i64 4, ptr %9) #8
  %109 = call i32 @pthread_mutex_unlock(ptr noundef @term_lock) #8
  store i32 %109, ptr %9, align 4
  %110 = load i32, ptr %9, align 4
  %111 = icmp ne i32 %110, 0
  br i1 %111, label %112, label %115

112:                                              ; preds = %108
  %113 = load i32, ptr %9, align 4
  %114 = call ptr @__errno_location() #9
  store i32 %113, ptr %114, align 4
  call void (ptr, ...) @fatal_abort(ptr noundef @.str.2, ptr noundef @__func__.gs_fini) #10
  unreachable

115:                                              ; preds = %108
  call void @llvm.lifetime.end.p0(i64 4, ptr %9) #8
  br label %116

116:                                              ; preds = %115
  br label %117

117:                                              ; preds = %116, %78
  br label %128

118:                                              ; preds = %34
  br label %119

119:                                              ; preds = %118
  call void @llvm.lifetime.start.p0(i64 4, ptr %10) #8
  %120 = call i32 @pthread_mutex_unlock(ptr noundef @thread_flag_mutex) #8
  store i32 %120, ptr %10, align 4
  %121 = load i32, ptr %10, align 4
  %122 = icmp ne i32 %121, 0
  br i1 %122, label %123, label %126

123:                                              ; preds = %119
  %124 = load i32, ptr %10, align 4
  %125 = call ptr @__errno_location() #9
  store i32 %124, ptr %125, align 4
  call void (ptr, ...) @fatal_abort(ptr noundef @.str.2, ptr noundef @__func__.gs_fini) #10
  unreachable

126:                                              ; preds = %119
  call void @llvm.lifetime.end.p0(i64 4, ptr %10) #8
  br label %127

127:                                              ; preds = %126
  br label %128

128:                                              ; preds = %127, %117
  br label %129

129:                                              ; preds = %128
  %130 = load ptr, ptr @preempt_job_list, align 8
  %131 = icmp ne ptr %130, null
  br i1 %131, label %132, label %134

132:                                              ; preds = %129
  %133 = load ptr, ptr @preempt_job_list, align 8
  call void @list_destroy(ptr noundef %133)
  br label %134

134:                                              ; preds = %132, %129
  store ptr null, ptr @preempt_job_list, align 8
  br label %135

135:                                              ; preds = %134
  br label %136

136:                                              ; preds = %135
  call void @llvm.lifetime.start.p0(i64 4, ptr %11) #8
  %137 = call i32 @pthread_mutex_lock(ptr noundef @data_mutex) #8
  store i32 %137, ptr %11, align 4
  %138 = load i32, ptr %11, align 4
  %139 = icmp ne i32 %138, 0
  br i1 %139, label %140, label %143

140:                                              ; preds = %136
  %141 = load i32, ptr %11, align 4
  %142 = call ptr @__errno_location() #9
  store i32 %141, ptr %142, align 4
  call void (ptr, ...) @fatal_abort(ptr noundef @.str.1, ptr noundef @__func__.gs_fini) #10
  unreachable

143:                                              ; preds = %136
  call void @llvm.lifetime.end.p0(i64 4, ptr %11) #8
  br label %144

144:                                              ; preds = %143
  br label %145

145:                                              ; preds = %144
  %146 = load ptr, ptr @gs_part_list, align 8
  %147 = icmp ne ptr %146, null
  br i1 %147, label %148, label %150

148:                                              ; preds = %145
  %149 = load ptr, ptr @gs_part_list, align 8
  call void @list_destroy(ptr noundef %149)
  br label %150

150:                                              ; preds = %148, %145
  store ptr null, ptr @gs_part_list, align 8
  br label %151

151:                                              ; preds = %150
  store ptr null, ptr @gs_part_list, align 8
  br label %152

152:                                              ; preds = %151
  call void @llvm.lifetime.start.p0(i64 4, ptr %12) #8
  %153 = call i32 @pthread_mutex_unlock(ptr noundef @data_mutex) #8
  store i32 %153, ptr %12, align 4
  %154 = load i32, ptr %12, align 4
  %155 = icmp ne i32 %154, 0
  br i1 %155, label %156, label %159

156:                                              ; preds = %152
  %157 = load i32, ptr %12, align 4
  %158 = call ptr @__errno_location() #9
  store i32 %157, ptr %158, align 4
  call void (ptr, ...) @fatal_abort(ptr noundef @.str.2, ptr noundef @__func__.gs_fini) #10
  unreachable

159:                                              ; preds = %152
  call void @llvm.lifetime.end.p0(i64 4, ptr %12) #8
  br label %160

160:                                              ; preds = %159
  br label %161

161:                                              ; preds = %160
  %162 = load i64, ptr getelementptr inbounds nuw (%struct.slurm_conf_t, ptr @slurm_conf, i32 0, i32 42), align 8
  %163 = and i64 %162, 8192
  %164 = icmp ne i64 %163, 0
  br i1 %164, label %165, label %172

165:                                              ; preds = %161
  br label %166

166:                                              ; preds = %165
  %167 = call i32 @get_log_level()
  %168 = icmp sge i32 %167, 4
  br i1 %168, label %169, label %170

169:                                              ; preds = %166
  call void (i32, ptr, ...) @log_var(i32 noundef 4, ptr noundef @.str.8)
  br label %170

170:                                              ; preds = %169, %166
  br label %171

171:                                              ; preds = %170
  br label %172

172:                                              ; preds = %171, %161
  br label %173

173:                                              ; preds = %172
  ret void
}