; Function Attrs: nounwind uwtable
define dso_local void @gs_fini() local_unnamed_addr #0 {
  %1 = load i64, ptr getelementptr inbounds nuw (i8, ptr @slurm_conf, i64 320), align 8
  %2 = and i64 %1, 8192
  %.not = icmp eq i64 %2, 0
  br i1 %.not, label %7, label %3

3:                                                ; preds = %0
  %4 = tail call i32 @get_log_level() #8
  %5 = icmp sgt i32 %4, 3
  br i1 %5, label %6, label %7

6:                                                ; preds = %3
  tail call void (i32, ptr, ...) @log_var(i32 noundef 4, ptr noundef nonnull @.str.4) #8
  br label %7

7:                                                ; preds = %6, %3, %0
  %8 = tail call i32 @pthread_mutex_lock(ptr noundef nonnull @thread_flag_mutex) #8
  %.not37 = icmp eq i32 %8, 0
  br i1 %.not37, label %11, label %9

9:                                                ; preds = %7
  %10 = tail call ptr @__errno_location() #9
  store i32 %8, ptr %10, align 4
  tail call void (ptr, ...) @fatal_abort(ptr noundef nonnull @.str.1, ptr noundef nonnull @__func__.gs_fini) #10
  unreachable

11:                                               ; preds = %7
  %.b38 = load i1, ptr @thread_running, align 1
  br i1 %.b38, label %12, label %50

12:                                               ; preds = %11
  %13 = tail call i32 @pthread_mutex_lock(ptr noundef nonnull @term_lock) #8
  %.not40 = icmp eq i32 %13, 0
  br i1 %.not40, label %16, label %14

14:                                               ; preds = %12
  %15 = tail call ptr @__errno_location() #9
  store i32 %13, ptr %15, align 4
  tail call void (ptr, ...) @fatal_abort(ptr noundef nonnull @.str.1, ptr noundef nonnull @__func__.gs_fini) #10
  unreachable

16:                                               ; preds = %12
  store i1 true, ptr @thread_shutdown, align 1
  %17 = tail call i32 @pthread_cond_signal(ptr noundef nonnull @term_cond) #8
  %.not41 = icmp eq i32 %17, 0
  br i1 %.not41, label %21, label %18

18:                                               ; preds = %16
  %19 = tail call ptr @__errno_location() #9
  store i32 %17, ptr %19, align 4
  %20 = tail call i32 (ptr, ...) @error(ptr noundef nonnull @.str.5, ptr noundef nonnull @.str.6, i32 noundef 1081, ptr noundef nonnull @__func__.gs_fini) #8
  br label %21

21:                                               ; preds = %18, %16
  %22 = tail call i32 @pthread_mutex_unlock(ptr noundef nonnull @term_lock) #8
  %.not42 = icmp eq i32 %22, 0
  br i1 %.not42, label %25, label %23

23:                                               ; preds = %21
  %24 = tail call ptr @__errno_location() #9
  store i32 %22, ptr %24, align 4
  tail call void (ptr, ...) @fatal_abort(ptr noundef nonnull @.str.2, ptr noundef nonnull @__func__.gs_fini) #10
  unreachable

25:                                               ; preds = %21
  %26 = tail call i32 @pthread_mutex_unlock(ptr noundef nonnull @thread_flag_mutex) #8
  %.not43 = icmp eq i32 %26, 0
  br i1 %.not43, label %29, label %27

27:                                               ; preds = %25
  %28 = tail call ptr @__errno_location() #9
  store i32 %26, ptr %28, align 4
  tail call void (ptr, ...) @fatal_abort(ptr noundef nonnull @.str.2, ptr noundef nonnull @__func__.gs_fini) #10
  unreachable

29:                                               ; preds = %25
  %30 = tail call i32 @usleep(i32 noundef 120000) #8
  %31 = load i64, ptr @timeslicer_thread_id, align 8
  %.not44 = icmp eq i64 %31, 0
  br i1 %.not44, label %34, label %32

32:                                               ; preds = %29
  %33 = tail call i32 (ptr, ...) @error(ptr noundef nonnull @.str.7) #8
  br label %54

34:                                               ; preds = %29
  %35 = tail call i32 @pthread_mutex_lock(ptr noundef nonnull @thread_flag_mutex) #8
  %.not45 = icmp eq i32 %35, 0
  br i1 %.not45, label %38, label %36

36:                                               ; preds = %34
  %37 = tail call ptr @__errno_location() #9
  store i32 %35, ptr %37, align 4
  tail call void (ptr, ...) @fatal_abort(ptr noundef nonnull @.str.1, ptr noundef nonnull @__func__.gs_fini) #10
  unreachable

38:                                               ; preds = %34
  store i1 false, ptr @thread_running, align 1
  %39 = tail call i32 @pthread_mutex_unlock(ptr noundef nonnull @thread_flag_mutex) #8
  %.not46 = icmp eq i32 %39, 0
  br i1 %.not46, label %42, label %40

40:                                               ; preds = %38
  %41 = tail call ptr @__errno_location() #9
  store i32 %39, ptr %41, align 4
  tail call void (ptr, ...) @fatal_abort(ptr noundef nonnull @.str.2, ptr noundef nonnull @__func__.gs_fini) #10
  unreachable

42:                                               ; preds = %38
  %43 = tail call i32 @pthread_mutex_lock(ptr noundef nonnull @term_lock) #8
  %.not47 = icmp eq i32 %43, 0
  br i1 %.not47, label %46, label %44

44:                                               ; preds = %42
  %45 = tail call ptr @__errno_location() #9
  store i32 %43, ptr %45, align 4
  tail call void (ptr, ...) @fatal_abort(ptr noundef nonnull @.str.1, ptr noundef nonnull @__func__.gs_fini) #10
  unreachable

46:                                               ; preds = %42
  store i1 false, ptr @thread_shutdown, align 1
  %47 = tail call i32 @pthread_mutex_unlock(ptr noundef nonnull @term_lock) #8
  %.not48 = icmp eq i32 %47, 0
  br i1 %.not48, label %54, label %48

48:                                               ; preds = %46
  %49 = tail call ptr @__errno_location() #9
  store i32 %47, ptr %49, align 4
  tail call void (ptr, ...) @fatal_abort(ptr noundef nonnull @.str.2, ptr noundef nonnull @__func__.gs_fini) #10
  unreachable

50:                                               ; preds = %11
  %51 = tail call i32 @pthread_mutex_unlock(ptr noundef nonnull @thread_flag_mutex) #8
  %.not39 = icmp eq i32 %51, 0
  br i1 %.not39, label %54, label %52

52:                                               ; preds = %50
  %53 = tail call ptr @__errno_location() #9
  store i32 %51, ptr %53, align 4
  tail call void (ptr, ...) @fatal_abort(ptr noundef nonnull @.str.2, ptr noundef nonnull @__func__.gs_fini) #10
  unreachable

54:                                               ; preds = %50, %46, %32
  %55 = load ptr, ptr @preempt_job_list, align 8
  %.not49 = icmp eq ptr %55, null
  br i1 %.not49, label %57, label %56

56:                                               ; preds = %54
  tail call void @list_destroy(ptr noundef nonnull %55) #8
  br label %57

57:                                               ; preds = %56, %54
  store ptr null, ptr @preempt_job_list, align 8
  %58 = tail call i32 @pthread_mutex_lock(ptr noundef nonnull @data_mutex) #8
  %.not50 = icmp eq i32 %58, 0
  br i1 %.not50, label %61, label %59

59:                                               ; preds = %57
  %60 = tail call ptr @__errno_location() #9
  store i32 %58, ptr %60, align 4
  tail call void (ptr, ...) @fatal_abort(ptr noundef nonnull @.str.1, ptr noundef nonnull @__func__.gs_fini) #10
  unreachable

61:                                               ; preds = %57
  %62 = load ptr, ptr @gs_part_list, align 8
  %.not51 = icmp eq ptr %62, null
  br i1 %.not51, label %64, label %63

63:                                               ; preds = %61
  tail call void @list_destroy(ptr noundef nonnull %62) #8
  br label %64

64:                                               ; preds = %63, %61
  store ptr null, ptr @gs_part_list, align 8
  %65 = tail call i32 @pthread_mutex_unlock(ptr noundef nonnull @data_mutex) #8
  %.not52 = icmp eq i32 %65, 0
  br i1 %.not52, label %68, label %66

66:                                               ; preds = %64
  %67 = tail call ptr @__errno_location() #9
  store i32 %65, ptr %67, align 4
  tail call void (ptr, ...) @fatal_abort(ptr noundef nonnull @.str.2, ptr noundef nonnull @__func__.gs_fini) #10
  unreachable

68:                                               ; preds = %64
  %69 = load i64, ptr getelementptr inbounds nuw (i8, ptr @slurm_conf, i64 320), align 8
  %70 = and i64 %69, 8192
  %.not53 = icmp eq i64 %70, 0
  br i1 %.not53, label %75, label %71

71:                                               ; preds = %68
  %72 = tail call i32 @get_log_level() #8
  %73 = icmp sgt i32 %72, 3
  br i1 %73, label %74, label %75

74:                                               ; preds = %71
  tail call void (i32, ptr, ...) @log_var(i32 noundef 4, ptr noundef nonnull @.str.8) #8
  br label %75

75:                                               ; preds = %68, %71, %74
  ret void
}